target datalayout = "e-m:e-p270:32:32-p271:32:32-p272:64:64-i64:64-i128:128-f80:128-n8:16:32:64-S128"
target triple = "x86_64-unknown-linux-gnu"

@_ZTIN6icu_7512NumberFormatE = external constant ptr
@_ZTIN6icu_7513DecimalFormatE = external constant ptr

; Function Attrs: mustprogress uwtable
define void @unum_setAttribute_75(ptr noundef %fmt, i32 noundef %attr, i32 noundef %newValue) #0 {
entry:
  %fmt.addr = alloca ptr, align 8
  %attr.addr = alloca i32, align 4
  %newValue.addr = alloca i32, align 4
  %nf = alloca ptr, align 8
  %df = alloca ptr, align 8
  %ignoredStatus = alloca i32, align 4
  store ptr %fmt, ptr %fmt.addr, align 8
  store i32 %attr, ptr %attr.addr, align 4
  store i32 %newValue, ptr %newValue.addr, align 4
  %0 = load ptr, ptr %fmt.addr, align 8
  store ptr %0, ptr %nf, align 8
  %1 = load i32, ptr %attr.addr, align 4
  %cmp = icmp eq i32 %1, 19
  br i1 %cmp, label %if.then, label %if.else

if.then:                                          ; preds = %entry
  %2 = load ptr, ptr %nf, align 8
  %3 = load i32, ptr %newValue.addr, align 4
  %cmp1 = icmp ne i32 %3, 0
  %conv = zext i1 %cmp1 to i8
  %vtable = load ptr, ptr %2, align 8
  %vfn = getelementptr inbounds ptr, ptr %vtable, i64 24
  %4 = load ptr, ptr %vfn, align 8
  call void %4(ptr noundef nonnull align 8 dereferenceable(356) %2, i8 noundef signext %conv)
  br label %if.end51

if.else:                                          ; preds = %entry
  %5 = load i32, ptr %attr.addr, align 4
  %cmp2 = icmp eq i32 %5, 3
  br i1 %cmp2, label %if.then3, label %if.else6

if.then3:                                         ; preds = %if.else
  %6 = load ptr, ptr %nf, align 8
  %7 = load i32, ptr %newValue.addr, align 4
  %vtable4 = load ptr, ptr %6, align 8
  %vfn5 = getelementptr inbounds ptr, ptr %vtable4, i64 27
  %8 = load ptr, ptr %vfn5, align 8
  call void %8(ptr noundef nonnull align 8 dereferenceable(356) %6, i32 noundef %7)
  br label %if.end51

if.else6:                                         ; preds = %if.else
  %9 = load i32, ptr %attr.addr, align 4
  %cmp7 = icmp eq i32 %9, 4
  br i1 %cmp7, label %if.then8, label %if.else11

if.then8:                                         ; preds = %if.else6
  %10 = load ptr, ptr %nf, align 8
  %11 = load i32, ptr %newValue.addr, align 4
  %vtable9 = load ptr, ptr %10, align 8
  %vfn10 = getelementptr inbounds ptr, ptr %vtable9, i64 28
  %12 = load ptr, ptr %vfn10, align 8
  call void %12(ptr noundef nonnull align 8 dereferenceable(356) %10, i32 noundef %11)
  br label %if.end51

if.else11:                                        ; preds = %if.else6
  %13 = load i32, ptr %attr.addr, align 4
  %cmp12 = icmp eq i32 %13, 5
  br i1 %cmp12, label %if.then13, label %if.else18

if.then13:                                        ; preds = %if.else11
  %14 = load ptr, ptr %nf, align 8
  %15 = load i32, ptr %newValue.addr, align 4
  %vtable14 = load ptr, ptr %14, align 8
  %vfn15 = getelementptr inbounds ptr, ptr %vtable14, i64 28
  %16 = load ptr, ptr %vfn15, align 8
  call void %16(ptr noundef nonnull align 8 dereferenceable(356) %14, i32 noundef %15)
  %17 = load ptr, ptr %nf, align 8
  %18 = load i32, ptr %newValue.addr, align 4
  %vtable16 = load ptr, ptr %17, align 8
  %vfn17 = getelementptr inbounds ptr, ptr %vtable16, i64 27
  %19 = load ptr, ptr %vfn17, align 8
  call void %19(ptr noundef nonnull align 8 dereferenceable(356) %17, i32 noundef %18)
  br label %if.end51

if.else18:                                        ; preds = %if.else11
  %20 = load i32, ptr %attr.addr, align 4
  %cmp19 = icmp eq i32 %20, 6
  br i1 %cmp19, label %if.then20, label %if.else23

if.then20:                                        ; preds = %if.else18
  %21 = load ptr, ptr %nf, align 8
  %22 = load i32, ptr %newValue.addr, align 4
  %vtable21 = load ptr, ptr %21, align 8
  %vfn22 = getelementptr inbounds ptr, ptr %vtable21, i64 29
  %23 = load ptr, ptr %vfn22, align 8
  call void %23(ptr noundef nonnull align 8 dereferenceable(356) %21, i32 noundef %22)
  br label %if.end51

if.else23:                                        ; preds = %if.else18
  %24 = load i32, ptr %attr.addr, align 4
  %cmp24 = icmp eq i32 %24, 7
  br i1 %cmp24, label %if.then25, label %if.else28

if.then25:                                        ; preds = %if.else23
  %25 = load ptr, ptr %nf, align 8
  %26 = load i32, ptr %newValue.addr, align 4
  %vtable26 = load ptr, ptr %25, align 8
  %vfn27 = getelementptr inbounds ptr, ptr %vtable26, i64 30
  %27 = load ptr, ptr %vfn27, align 8
  call void %27(ptr noundef nonnull align 8 dereferenceable(356) %25, i32 noundef %26)
  br label %if.end51

if.else28:                                        ; preds = %if.else23
  %28 = load i32, ptr %attr.addr, align 4
  %cmp29 = icmp eq i32 %28, 8
  br i1 %cmp29, label %if.then30, label %if.else35

if.then30:                                        ; preds = %if.else28
  %29 = load ptr, ptr %nf, align 8
  %30 = load i32, ptr %newValue.addr, align 4
  %vtable31 = load ptr, ptr %29, align 8
  %vfn32 = getelementptr inbounds ptr, ptr %vtable31, i64 30
  %31 = load ptr, ptr %vfn32, align 8
  call void %31(ptr noundef nonnull align 8 dereferenceable(356) %29, i32 noundef %30)
  %32 = load ptr, ptr %nf, align 8
  %33 = load i32, ptr %newValue.addr, align 4
  %vtable33 = load ptr, ptr %32, align 8
  %vfn34 = getelementptr inbounds ptr, ptr %vtable33, i64 29
  %34 = load ptr, ptr %vfn34, align 8
  call void %34(ptr noundef nonnull align 8 dereferenceable(356) %32, i32 noundef %33)
  br label %if.end51

if.else35:                                        ; preds = %if.else28
  %35 = load i32, ptr %attr.addr, align 4
  %cmp36 = icmp eq i32 %35, 11
  br i1 %cmp36, label %if.then37, label %if.end

if.then37:                                        ; preds = %if.else35
  %36 = load ptr, ptr %nf, align 8
  %37 = load i32, ptr %newValue.addr, align 4
  %vtable38 = load ptr, ptr %36, align 8
  %vfn39 = getelementptr inbounds ptr, ptr %vtable38, i64 35
  %38 = load ptr, ptr %vfn39, align 8
  call void %38(ptr noundef nonnull align 8 dereferenceable(356) %36, i32 noundef %37)
  br label %if.end51

if.end:                                           ; preds = %if.else35
  br label %if.end40

if.end40:                                         ; preds = %if.end
  br label %if.end41

if.end41:                                         ; preds = %if.end40
  br label %if.end42

if.end42:                                         ; preds = %if.end41
  br label %if.end43

if.end43:                                         ; preds = %if.end42
  br label %if.end44

if.end44:                                         ; preds = %if.end43
  br label %if.end45

if.end45:                                         ; preds = %if.end44
  br label %if.end46

if.end46:                                         ; preds = %if.end45
  %39 = load ptr, ptr %nf, align 8
  %40 = icmp eq ptr %39, null
  br i1 %40, label %dynamic_cast.null, label %dynamic_cast.notnull

dynamic_cast.notnull:                             ; preds = %if.end46
  %41 = call ptr @__dynamic_cast(ptr %39, ptr @_ZTIN6icu_7512NumberFormatE, ptr @_ZTIN6icu_7513DecimalFormatE, i64 0) #8
  br label %dynamic_cast.end

dynamic_cast.null:                                ; preds = %if.end46
  br label %dynamic_cast.end

dynamic_cast.end:                                 ; preds = %dynamic_cast.null, %dynamic_cast.notnull
  %42 = phi ptr [ %41, %dynamic_cast.notnull ], [ null, %dynamic_cast.null ]
  store ptr %42, ptr %df, align 8
  %43 = load ptr, ptr %df, align 8
  %cmp47 = icmp ne ptr %43, null
  br i1 %cmp47, label %if.then48, label %if.end51

if.then48:                                        ; preds = %dynamic_cast.end
  store i32 0, ptr %ignoredStatus, align 4
  %44 = load ptr, ptr %df, align 8
  %45 = load i32, ptr %attr.addr, align 4
  %46 = load i32, ptr %newValue.addr, align 4
  %vtable49 = load ptr, ptr %44, align 8
  %vfn50 = getelementptr inbounds ptr, ptr %vtable49, i64 37
  %47 = load ptr, ptr %vfn50, align 8
  %call = call noundef nonnull align 8 dereferenceable(368) ptr %47(ptr noundef nonnull align 8 dereferenceable(368) %44, i32 noundef %45, i32 noundef %46, ptr noundef nonnull align 4 dereferenceable(4) %ignoredStatus)
  br label %if.end51

if.end51:                                         ; preds = %if.then48, %dynamic_cast.end, %if.then37, %if.then30, %if.then25, %if.then20, %if.then13, %if.then8, %if.then3, %if.then
  ret void
}