; Function Attrs: mustprogress uwtable
define void @unum_setAttribute_75(ptr noundef %fmt, i32 noundef %attr, i32 noundef %newValue) local_unnamed_addr #0 {
entry:
  %ignoredStatus = alloca i32, align 4
  switch i32 %attr, label %if.end46 [
    i32 19, label %if.then
    i32 3, label %if.then3
    i32 4, label %if.then8
    i32 5, label %if.then13
    i32 6, label %if.then20
    i32 7, label %if.then25
    i32 8, label %if.then30
    i32 11, label %if.then37
  ]

if.then:                                          ; preds = %entry
  %cmp1 = icmp ne i32 %newValue, 0
  %conv = zext i1 %cmp1 to i8
  %vtable = load ptr, ptr %fmt, align 8
  %vfn = getelementptr inbounds i8, ptr %vtable, i64 192
  %0 = load ptr, ptr %vfn, align 8
  tail call void %0(ptr noundef nonnull align 8 dereferenceable(356) %fmt, i8 noundef signext %conv)
  br label %if.end51

if.then3:                                         ; preds = %entry
  %vtable4 = load ptr, ptr %fmt, align 8
  %vfn5 = getelementptr inbounds i8, ptr %vtable4, i64 216
  %1 = load ptr, ptr %vfn5, align 8
  tail call void %1(ptr noundef nonnull align 8 dereferenceable(356) %fmt, i32 noundef %newValue)
  br label %if.end51

if.then8:                                         ; preds = %entry
  %vtable9 = load ptr, ptr %fmt, align 8
  %vfn10 = getelementptr inbounds i8, ptr %vtable9, i64 224
  %2 = load ptr, ptr %vfn10, align 8
  tail call void %2(ptr noundef nonnull align 8 dereferenceable(356) %fmt, i32 noundef %newValue)
  br label %if.end51

if.then13:                                        ; preds = %entry
  %vtable14 = load ptr, ptr %fmt, align 8
  %vfn15 = getelementptr inbounds i8, ptr %vtable14, i64 224
  %3 = load ptr, ptr %vfn15, align 8
  tail call void %3(ptr noundef nonnull align 8 dereferenceable(356) %fmt, i32 noundef %newValue)
  %vtable16 = load ptr, ptr %fmt, align 8
  %vfn17 = getelementptr inbounds i8, ptr %vtable16, i64 216
  %4 = load ptr, ptr %vfn17, align 8
  tail call void %4(ptr noundef nonnull align 8 dereferenceable(356) %fmt, i32 noundef %newValue)
  br label %if.end51

if.then20:                                        ; preds = %entry
  %vtable21 = load ptr, ptr %fmt, align 8
  %vfn22 = getelementptr inbounds i8, ptr %vtable21, i64 232
  %5 = load ptr, ptr %vfn22, align 8
  tail call void %5(ptr noundef nonnull align 8 dereferenceable(356) %fmt, i32 noundef %newValue)
  br label %if.end51

if.then25:                                        ; preds = %entry
  %vtable26 = load ptr, ptr %fmt, align 8
  %vfn27 = getelementptr inbounds i8, ptr %vtable26, i64 240
  %6 = load ptr, ptr %vfn27, align 8
  tail call void %6(ptr noundef nonnull align 8 dereferenceable(356) %fmt, i32 noundef %newValue)
  br label %if.end51

if.then30:                                        ; preds = %entry
  %vtable31 = load ptr, ptr %fmt, align 8
  %vfn32 = getelementptr inbounds i8, ptr %vtable31, i64 240
  %7 = load ptr, ptr %vfn32, align 8
  tail call void %7(ptr noundef nonnull align 8 dereferenceable(356) %fmt, i32 noundef %newValue)
  %vtable33 = load ptr, ptr %fmt, align 8
  %vfn34 = getelementptr inbounds i8, ptr %vtable33, i64 232
  %8 = load ptr, ptr %vfn34, align 8
  tail call void %8(ptr noundef nonnull align 8 dereferenceable(356) %fmt, i32 noundef %newValue)
  br label %if.end51

if.then37:                                        ; preds = %entry
  %vtable38 = load ptr, ptr %fmt, align 8
  %vfn39 = getelementptr inbounds i8, ptr %vtable38, i64 280
  %9 = load ptr, ptr %vfn39, align 8
  tail call void %9(ptr noundef nonnull align 8 dereferenceable(356) %fmt, i32 noundef %newValue)
  br label %if.end51

if.end46:                                         ; preds = %entry
  %10 = icmp eq ptr %fmt, null
  br i1 %10, label %if.end51, label %dynamic_cast.end

dynamic_cast.end:                                 ; preds = %if.end46
  %11 = tail call ptr @__dynamic_cast(ptr nonnull %fmt, ptr nonnull @_ZTIN6icu_7512NumberFormatE, ptr nonnull @_ZTIN6icu_7513DecimalFormatE, i64 0) #10
  %cmp47.not = icmp eq ptr %11, null
  br i1 %cmp47.not, label %if.end51, label %if.then48

if.then48:                                        ; preds = %dynamic_cast.end
  store i32 0, ptr %ignoredStatus, align 4
  %vtable49 = load ptr, ptr %11, align 8
  %vfn50 = getelementptr inbounds i8, ptr %vtable49, i64 296
  %12 = load ptr, ptr %vfn50, align 8
  %call = call noundef nonnull align 8 dereferenceable(368) ptr %12(ptr noundef nonnull align 8 dereferenceable(368) %11, i32 noundef %attr, i32 noundef %newValue, ptr noundef nonnull align 4 dereferenceable(4) %ignoredStatus)
  br label %if.end51

if.end51:                                         ; preds = %if.end46, %if.then48, %dynamic_cast.end, %if.then37, %if.then30, %if.then25, %if.then20, %if.then13, %if.then8, %if.then3, %if.then
  ret void
}